; Function Attrs: mustprogress uwtable
define internal noundef nonnull ptr @_ZN7testing12_GLOBAL__N_124ParameterizedTestFactoryIN11opencv_test30Layer_GroupNorm_GroupNorm_TestEE10CreateTestEv(ptr noundef nonnull align 8 dereferenceable(16) %0) unnamed_addr #4 align 2 personality ptr @__gxx_personality_v0 {
  %2 = getelementptr inbounds nuw i8, ptr %0, i64 8
  store ptr %2, ptr @_ZN7testing8internal12g_parameter_E, align 8, !tbaa !617
  %3 = tail call noalias noundef nonnull dereferenceable(280) ptr @_Znwm(i64 noundef 280) #31
  invoke void @_ZN4perf8TestBaseC2Ev(ptr noundef nonnull align 8 dereferenceable(277) %3)
          to label %4 unwind label %12

4:                                                ; preds = %1
  %5 = getelementptr inbounds nuw i8, ptr %3, i64 248
  %6 = getelementptr inbounds nuw i8, ptr %3, i64 256
  store i32 2, ptr %6, align 8, !tbaa !311
  %7 = getelementptr inbounds nuw i8, ptr %3, i64 260
  store i32 64, ptr %7, align 4, !tbaa !312
  %8 = getelementptr inbounds nuw i8, ptr %3, i64 264
  store i32 180, ptr %8, align 8, !tbaa !313
  %9 = getelementptr inbounds nuw i8, ptr %3, i64 268
  store i32 240, ptr %9, align 4, !tbaa !314
  %10 = getelementptr inbounds nuw i8, ptr %3, i64 272
  store i32 16, ptr %10, align 8, !tbaa !315
  store ptr getelementptr inbounds nuw inrange(-16, 56) (i8, ptr @_ZTVN11opencv_test30Layer_GroupNorm_GroupNorm_TestE, i64 16), ptr %3, align 8, !tbaa !24
  store ptr getelementptr inbounds nuw inrange(-16, 16) (i8, ptr @_ZTVN11opencv_test30Layer_GroupNorm_GroupNorm_TestE, i64 88), ptr %5, align 8, !tbaa !24
  %11 = getelementptr inbounds nuw i8, ptr %3, i64 276
  store i8 0, ptr %11, align 4, !tbaa !308
  ret ptr %3

12:                                               ; preds = %1
  %13 = landingpad { ptr, i32 }
          cleanup
  tail call void @_ZdlPv(ptr noundef nonnull %3) #32
  resume { ptr, i32 } %13
}